target datalayout = "e-m:e-p270:32:32-p271:32:32-p272:64:64-i64:64-i128:128-f80:128-n8:16:32:64-S128"
target triple = "x86_64-pc-linux-gnu"

%struct.SurfaceDataRasInfo = type { %struct.SurfaceDataBounds, ptr, i32, i32, i32, i32, ptr, ptr, ptr, ptr, ptr, ptr, i32, %union.anon.0 }
%struct.SurfaceDataBounds = type { i32, i32, i32, i32 }
%union.anon.0 = type { ptr, [56 x i8] }

; Function Attrs: nounwind uwtable
define hidden void @ByteIndexedToThreeByteBgrConvert(ptr noundef %0, ptr noundef %1, i32 noundef %2, i32 noundef %3, ptr noundef %4, ptr noundef %5, ptr noundef %6, ptr noundef %7) #1 {
  %9 = alloca ptr, align 8
  %10 = alloca ptr, align 8
  %11 = alloca i32, align 4
  %12 = alloca i32, align 4
  %13 = alloca ptr, align 8
  %14 = alloca ptr, align 8
  %15 = alloca ptr, align 8
  %16 = alloca ptr, align 8
  %17 = alloca ptr, align 8
  %18 = alloca ptr, align 8
  %19 = alloca ptr, align 8
  %20 = alloca i32, align 4
  %21 = alloca i32, align 4
  %22 = alloca i32, align 4
  %23 = alloca i32, align 4
  store ptr %0, ptr %9, align 8
  store ptr %1, ptr %10, align 8
  store i32 %2, ptr %11, align 4
  store i32 %3, ptr %12, align 4
  store ptr %4, ptr %13, align 8
  store ptr %5, ptr %14, align 8
  store ptr %6, ptr %15, align 8
  store ptr %7, ptr %16, align 8
  %24 = load ptr, ptr %13, align 8
  %25 = getelementptr inbounds %struct.SurfaceDataRasInfo, ptr %24, i32 0, i32 6
  %26 = load ptr, ptr %25, align 8
  store ptr %26, ptr %17, align 8
  br label %27

27:                                               ; preds = %8
  %28 = load ptr, ptr %9, align 8
  store ptr %28, ptr %18, align 8
  %29 = load ptr, ptr %10, align 8
  store ptr %29, ptr %19, align 8
  %30 = load ptr, ptr %13, align 8
  %31 = getelementptr inbounds %struct.SurfaceDataRasInfo, ptr %30, i32 0, i32 4
  %32 = load i32, ptr %31, align 8
  store i32 %32, ptr %20, align 4
  %33 = load ptr, ptr %14, align 8
  %34 = getelementptr inbounds %struct.SurfaceDataRasInfo, ptr %33, i32 0, i32 4
  %35 = load i32, ptr %34, align 8
  store i32 %35, ptr %21, align 4
  %36 = load i32, ptr %11, align 4
  %37 = mul i32 %36, 1
  %38 = load i32, ptr %20, align 4
  %39 = sub i32 %38, %37
  store i32 %39, ptr %20, align 4
  %40 = load i32, ptr %11, align 4
  %41 = mul i32 %40, 3
  %42 = load i32, ptr %21, align 4
  %43 = sub i32 %42, %41
  store i32 %43, ptr %21, align 4
  br label %44

44:                                               ; preds = %98, %27
  %45 = load i32, ptr %11, align 4
  store i32 %45, ptr %22, align 4
  br label %46

46:                                               ; preds = %81, %44
  br label %47

47:                                               ; preds = %46
  %48 = load ptr, ptr %17, align 8
  %49 = load ptr, ptr %18, align 8
  %50 = getelementptr inbounds i8, ptr %49, i64 0
  %51 = load i8, ptr %50, align 1
  %52 = zext i8 %51 to i64
  %53 = getelementptr inbounds i32, ptr %48, i64 %52
  %54 = load i32, ptr %53, align 4
  store i32 %54, ptr %23, align 4
  br label %55

55:                                               ; preds = %47
  %56 = load i32, ptr %23, align 4
  %57 = ashr i32 %56, 0
  %58 = trunc i32 %57 to i8
  %59 = load ptr, ptr %19, align 8
  %60 = getelementptr inbounds i8, ptr %59, i64 0
  store i8 %58, ptr %60, align 1
  %61 = load i32, ptr %23, align 4
  %62 = ashr i32 %61, 8
  %63 = trunc i32 %62 to i8
  %64 = load ptr, ptr %19, align 8
  %65 = getelementptr inbounds i8, ptr %64, i64 1
  store i8 %63, ptr %65, align 1
  %66 = load i32, ptr %23, align 4
  %67 = ashr i32 %66, 16
  %68 = trunc i32 %67 to i8
  %69 = load ptr, ptr %19, align 8
  %70 = getelementptr inbounds i8, ptr %69, i64 2
  store i8 %68, ptr %70, align 1
  br label %71

71:                                               ; preds = %55
  br label %72

72:                                               ; preds = %71
  %73 = load ptr, ptr %18, align 8
  %74 = ptrtoint ptr %73 to i64
  %75 = add nsw i64 %74, 1
  %76 = inttoptr i64 %75 to ptr
  store ptr %76, ptr %18, align 8
  %77 = load ptr, ptr %19, align 8
  %78 = ptrtoint ptr %77 to i64
  %79 = add nsw i64 %78, 3
  %80 = inttoptr i64 %79 to ptr
  store ptr %80, ptr %19, align 8
  br label %81

81:                                               ; preds = %72
  %82 = load i32, ptr %22, align 4
  %83 = add i32 %82, -1
  store i32 %83, ptr %22, align 4
  %84 = icmp ugt i32 %83, 0
  br i1 %84, label %46, label %85, !llvm.loop !13

85:                                               ; preds = %81
  %86 = load ptr, ptr %18, align 8
  %87 = ptrtoint ptr %86 to i64
  %88 = load i32, ptr %20, align 4
  %89 = sext i32 %88 to i64
  %90 = add nsw i64 %87, %89
  %91 = inttoptr i64 %90 to ptr
  store ptr %91, ptr %18, align 8
  %92 = load ptr, ptr %19, align 8
  %93 = ptrtoint ptr %92 to i64
  %94 = load i32, ptr %21, align 4
  %95 = sext i32 %94 to i64
  %96 = add nsw i64 %93, %95
  %97 = inttoptr i64 %96 to ptr
  store ptr %97, ptr %19, align 8
  br label %98

98:                                               ; preds = %85
  %99 = load i32, ptr %12, align 4
  %100 = add i32 %99, -1
  store i32 %100, ptr %12, align 4
  %101 = icmp ugt i32 %100, 0
  br i1 %101, label %44, label %102, !llvm.loop !14

102:                                              ; preds = %98
  br label %103

103:                                              ; preds = %102
  ret void
}