; Function Attrs: nofree norecurse nosync nounwind memory(readwrite, inaccessiblemem: none) uwtable
define hidden void @ByteIndexedToThreeByteBgrConvert(ptr noundef %0, ptr noundef %1, i32 noundef %2, i32 noundef %3, ptr nocapture noundef readonly %4, ptr nocapture noundef readonly %5, ptr nocapture readnone %6, ptr nocapture readnone %7) #1 {
  %9 = getelementptr inbounds i8, ptr %4, i64 40
  %10 = load ptr, ptr %9, align 8
  %11 = getelementptr inbounds i8, ptr %4, i64 32
  %12 = load i32, ptr %11, align 8
  %13 = getelementptr inbounds i8, ptr %5, i64 32
  %14 = load i32, ptr %13, align 8
  %15 = sub i32 %12, %2
  %.neg = mul i32 %2, -3
  %16 = add i32 %14, %.neg
  %17 = sext i32 %15 to i64
  %18 = sext i32 %16 to i64
  br label %19

19:                                               ; preds = %39, %8
  %.027 = phi ptr [ %0, %8 ], [ %41, %39 ]
  %.026 = phi ptr [ %1, %8 ], [ %43, %39 ]
  %.0 = phi i32 [ %3, %8 ], [ %44, %39 ]
  br label %20

20:                                               ; preds = %20, %19
  %.128 = phi ptr [ %.027, %19 ], [ %34, %20 ]
  %.1 = phi ptr [ %.026, %19 ], [ %37, %20 ]
  %.025 = phi i32 [ %2, %19 ], [ %38, %20 ]
  %21 = load i8, ptr %.128, align 1
  %22 = zext i8 %21 to i64
  %23 = getelementptr inbounds i32, ptr %10, i64 %22
  %24 = load i32, ptr %23, align 4
  %25 = trunc i32 %24 to i8
  store i8 %25, ptr %.1, align 1
  %26 = lshr i32 %24, 8
  %27 = trunc i32 %26 to i8
  %28 = getelementptr inbounds i8, ptr %.1, i64 1
  store i8 %27, ptr %28, align 1
  %29 = lshr i32 %24, 16
  %30 = trunc i32 %29 to i8
  %31 = getelementptr inbounds i8, ptr %.1, i64 2
  store i8 %30, ptr %31, align 1
  %32 = ptrtoint ptr %.128 to i64
  %33 = add nsw i64 %32, 1
  %34 = inttoptr i64 %33 to ptr
  %35 = ptrtoint ptr %.1 to i64
  %36 = add nsw i64 %35, 3
  %37 = inttoptr i64 %36 to ptr
  %38 = add i32 %.025, -1
  %.not = icmp eq i32 %38, 0
  br i1 %.not, label %39, label %20, !llvm.loop !13

39:                                               ; preds = %20
  %40 = add nsw i64 %33, %17
  %41 = inttoptr i64 %40 to ptr
  %42 = add nsw i64 %36, %18
  %43 = inttoptr i64 %42 to ptr
  %44 = add i32 %.0, -1
  %.not30 = icmp eq i32 %44, 0
  br i1 %.not30, label %45, label %19, !llvm.loop !14

45:                                               ; preds = %39
  ret void
}